; Function Attrs: null_pointer_is_valid sspstrong uwtable
define internal i32 @dissect_atm_pw_oam_cell(ptr noundef %0, ptr noundef %1, ptr noundef %2, ptr noundef %3) #1 {
  %.not = icmp eq ptr %3, null
  br i1 %.not, label %5, label %6

5:                                                ; preds = %4
  tail call void (ptr, ...) @proto_report_dissector_bug(ptr noundef nonnull @.str.326, ptr noundef nonnull @.str.327, i32 noundef 1733, ptr noundef nonnull @.str.345) #10
  unreachable

6:                                                ; preds = %4
  %7 = getelementptr inbounds nuw i8, ptr %1, i64 8
  %8 = load ptr, ptr %7, align 8
  tail call void @col_set_str(ptr noundef %8, i32 noundef 35, ptr noundef nonnull @.str.147)
  %9 = getelementptr inbounds nuw i8, ptr %3, i64 28
  %10 = load i8, ptr %9, align 4, !range !6, !noundef !7
  %11 = trunc nuw i8 %10 to i1
  tail call fastcc void @dissect_atm_cell_payload(ptr noundef %0, i32 noundef 0, ptr noundef %1, ptr noundef %2, i32 noundef 7, i1 noundef zeroext %11, ptr noundef nonnull %3)
  %12 = tail call i32 @tvb_reported_length(ptr noundef %0)
  ret i32 %12
}